; Function Attrs: mustprogress nofree norecurse nosync nounwind willreturn memory(argmem: readwrite) uwtable
define range(i64 -2147483648, 2147483648) i64 @_testfunc_union_by_reference2(ptr noundef captures(none) %0) local_unnamed_addr #12 {
  %2 = load i32, ptr %0, align 8, !tbaa !15
  %3 = getelementptr inbounds nuw i8, ptr %0, i64 4
  %4 = load i32, ptr %3, align 4, !tbaa !15
  %5 = add i32 %4, %2
  %6 = sext i32 %5 to i64
  store i64 0, ptr %0, align 8
  ret i64 %6
}